target datalayout = "e-m:e-p270:32:32-p271:32:32-p272:64:64-i64:64-i128:128-f80:128-n8:16:32:64-S128"
target triple = "x86_64-unknown-linux-gnu"

%"struct.icu_75::number::impl::RangeMacroProps" = type { [8 x i8], %"class.icu_75::number::UnlocalizedNumberFormatter", %"class.icu_75::number::UnlocalizedNumberFormatter", i8, i32, i32, [4 x i8], %"class.icu_75::Locale" }
%"class.icu_75::number::UnlocalizedNumberFormatter" = type <{ %"class.icu_75::number::NumberFormatterSettings", [8 x i8] }>
%"class.icu_75::number::NumberFormatterSettings" = type { %"struct.icu_75::number::impl::MacroProps" }
%"struct.icu_75::number::impl::MacroProps" = type { [4 x i8], %"class.icu_75::number::Notation", %"class.icu_75::MeasureUnit", %"class.icu_75::MeasureUnit", %"class.icu_75::number::Precision", i32, %"class.icu_75::number::impl::Grouper", %"class.icu_75::number::impl::Padder", %"class.icu_75::number::IntegerWidth", %"class.icu_75::number::impl::SymbolsWrapper", i32, i32, i8, i32, %"class.icu_75::number::Scale", %"class.icu_75::number::impl::StringProp", %"class.icu_75::number::impl::StringProp", ptr, ptr, i32, [4 x i8], %"class.icu_75::Locale" }
%"class.icu_75::number::Notation" = type { i32, %"union.icu_75::number::Notation::NotationUnion" }
%"union.icu_75::number::Notation::NotationUnion" = type { %"struct.icu_75::number::Notation::NotationUnion::ScientificSettings" }
%"struct.icu_75::number::Notation::NotationUnion::ScientificSettings" = type { i8, i8, i16, i32 }
%"class.icu_75::MeasureUnit" = type <{ %"class.icu_75::UObject", ptr, i16, i8, [5 x i8] }>
%"class.icu_75::UObject" = type { ptr }
%"class.icu_75::number::Precision" = type <{ i32, [4 x i8], %"union.icu_75::number::Precision::PrecisionUnion", i32, [4 x i8] }>
%"union.icu_75::number::Precision::PrecisionUnion" = type { %"struct.icu_75::number::Precision::PrecisionUnion::IncrementSettings" }
%"struct.icu_75::number::Precision::PrecisionUnion::IncrementSettings" = type { i64, i16, i16 }
%"class.icu_75::number::impl::Grouper" = type { i16, i16, i16, i32 }
%"class.icu_75::number::impl::Padder" = type { i32, %union.anon }
%union.anon = type { %struct.anon }
%struct.anon = type { i32, i32 }
%"class.icu_75::number::IntegerWidth" = type <{ %union.anon.0, i8, [3 x i8] }>
%union.anon.0 = type { i32, [4 x i8] }
%"class.icu_75::number::impl::SymbolsWrapper" = type { i32, %union.anon.2 }
%union.anon.2 = type { ptr }
%"class.icu_75::number::Scale" = type <{ i32, [4 x i8], ptr, i32, [4 x i8] }>
%"class.icu_75::number::impl::StringProp" = type { ptr, i16, i32 }
%"class.icu_75::Locale" = type <{ %"class.icu_75::UObject", [12 x i8], [6 x i8], [4 x i8], [2 x i8], i32, [4 x i8], ptr, [157 x i8], [3 x i8], ptr, i8, [7 x i8] }>
%"class.icu_75::number::LocalizedNumberRangeFormatter" = type { %"class.icu_75::number::NumberRangeFormatterSettings.3", %"struct.std::atomic" }
%"class.icu_75::number::NumberRangeFormatterSettings.3" = type { %"struct.icu_75::number::impl::RangeMacroProps" }
%"struct.std::atomic" = type { %"struct.std::__atomic_base" }
%"struct.std::__atomic_base" = type { ptr }

; Function Attrs: mustprogress uwtable
define linkonce_odr void @_ZN6icu_756number23NumberFormatterSettingsINS0_26UnlocalizedNumberFormatterEEC2Ev(ptr noundef nonnull align 8 dereferenceable(472) %this) unnamed_addr #1 comdat align 2 {
entry:
  %this.addr = alloca ptr, align 8
  store ptr %this, ptr %this.addr, align 8
  %this1 = load ptr, ptr %this.addr, align 8
  %fMacros = getelementptr inbounds %"class.icu_75::number::NumberFormatterSettings", ptr %this1, i32 0, i32 0
  call void @_ZN6icu_756number4impl10MacroPropsC2Ev(ptr noundef nonnull align 8 dereferenceable(472) %fMacros)
  ret void
}

; Function Attrs: mustprogress uwtable
define linkonce_odr void @_ZN6icu_756number26UnlocalizedNumberFormatterC2Ev(ptr noundef nonnull align 8 dereferenceable(473) %this) unnamed_addr #1 comdat align 2 {
entry:
  %this.addr = alloca ptr, align 8
  store ptr %this, ptr %this.addr, align 8
  %this1 = load ptr, ptr %this.addr, align 8
  call void @_ZN6icu_756number23NumberFormatterSettingsINS0_26UnlocalizedNumberFormatterEEC2Ev(ptr noundef nonnull align 8 dereferenceable(472) %this1)
  ret void
}

; Function Attrs: mustprogress uwtable
define linkonce_odr void @_ZN6icu_756number4impl15RangeMacroPropsC2Ev(ptr noundef nonnull align 8 dereferenceable(1208) %this) unnamed_addr #1 comdat align 2 personality ptr @__gxx_personality_v0 {
entry:
  %this.addr = alloca ptr, align 8
  %exn.slot = alloca ptr, align 8
  %ehselector.slot = alloca i32, align 4
  store ptr %this, ptr %this.addr, align 8
  %this1 = load ptr, ptr %this.addr, align 8
  %formatter1 = getelementptr inbounds %"struct.icu_75::number::impl::RangeMacroProps", ptr %this1, i32 0, i32 1
  call void @_ZN6icu_756number26UnlocalizedNumberFormatterC2Ev(ptr noundef nonnull align 8 dereferenceable(473) %formatter1)
  %formatter2 = getelementptr inbounds %"struct.icu_75::number::impl::RangeMacroProps", ptr %this1, i32 0, i32 2
  invoke void @_ZN6icu_756number26UnlocalizedNumberFormatterC2Ev(ptr noundef nonnull align 8 dereferenceable(473) %formatter2)
          to label %invoke.cont unwind label %lpad

invoke.cont:                                      ; preds = %entry
  %singleFormatter = getelementptr inbounds %"struct.icu_75::number::impl::RangeMacroProps", ptr %this1, i32 0, i32 3
  store i8 1, ptr %singleFormatter, align 8
  %collapse = getelementptr inbounds %"struct.icu_75::number::impl::RangeMacroProps", ptr %this1, i32 0, i32 4
  store i32 0, ptr %collapse, align 4
  %identityFallback = getelementptr inbounds %"struct.icu_75::number::impl::RangeMacroProps", ptr %this1, i32 0, i32 5
  store i32 2, ptr %identityFallback, align 8
  %locale = getelementptr inbounds %"struct.icu_75::number::impl::RangeMacroProps", ptr %this1, i32 0, i32 7
  invoke void @_ZN6icu_756LocaleC1Ev(ptr noundef nonnull align 8 dereferenceable(217) %locale)
          to label %invoke.cont3 unwind label %lpad2

invoke.cont3:                                     ; preds = %invoke.cont
  ret void

lpad:                                             ; preds = %entry
  %0 = landingpad { ptr, i32 }
          cleanup
  %1 = extractvalue { ptr, i32 } %0, 0
  store ptr %1, ptr %exn.slot, align 8
  %2 = extractvalue { ptr, i32 } %0, 1
  store i32 %2, ptr %ehselector.slot, align 4
  br label %ehcleanup

lpad2:                                            ; preds = %invoke.cont
  %3 = landingpad { ptr, i32 }
          cleanup
  %4 = extractvalue { ptr, i32 } %3, 0
  store ptr %4, ptr %exn.slot, align 8
  %5 = extractvalue { ptr, i32 } %3, 1
  store i32 %5, ptr %ehselector.slot, align 4
  call void @_ZN6icu_756number26UnlocalizedNumberFormatterD2Ev(ptr noundef nonnull align 8 dereferenceable(473) %formatter2) #9
  br label %ehcleanup

ehcleanup:                                        ; preds = %lpad2, %lpad
  call void @_ZN6icu_756number26UnlocalizedNumberFormatterD2Ev(ptr noundef nonnull align 8 dereferenceable(473) %formatter1) #9
  br label %eh.resume

eh.resume:                                        ; preds = %ehcleanup
  %exn = load ptr, ptr %exn.slot, align 8
  %sel = load i32, ptr %ehselector.slot, align 4
  %lpad.val = insertvalue { ptr, i32 } poison, ptr %exn, 0
  %lpad.val4 = insertvalue { ptr, i32 } %lpad.val, i32 %sel, 1
  resume { ptr, i32 } %lpad.val4
}

; Function Attrs: mustprogress nounwind uwtable
define linkonce_odr void @_ZN6icu_756number28NumberRangeFormatterSettingsINS0_29LocalizedNumberRangeFormatterEED2Ev(ptr noundef nonnull align 8 dereferenceable(1208) %this) unnamed_addr #0 comdat align 2 {
entry:
  %this.addr = alloca ptr, align 8
  store ptr %this, ptr %this.addr, align 8
  %this1 = load ptr, ptr %this.addr, align 8
  %fMacros = getelementptr inbounds %"class.icu_75::number::NumberRangeFormatterSettings.3", ptr %this1, i32 0, i32 0
  call void @_ZN6icu_756number4impl15RangeMacroPropsD2Ev(ptr noundef nonnull align 8 dereferenceable(1208) %fMacros) #9
  ret void
}

; Function Attrs: mustprogress uwtable
define void @_ZN6icu_756number4impl17touchRangeLocalesERNS1_15RangeMacroPropsE(ptr noundef nonnull align 8 dereferenceable(1208) %macros) #1 {
entry:
  %macros.addr = alloca ptr, align 8
  store ptr %macros, ptr %macros.addr, align 8
  %0 = load ptr, ptr %macros.addr, align 8
  %locale = getelementptr inbounds %"struct.icu_75::number::impl::RangeMacroProps", ptr %0, i32 0, i32 7
  %1 = load ptr, ptr %macros.addr, align 8
  %formatter1 = getelementptr inbounds %"struct.icu_75::number::impl::RangeMacroProps", ptr %1, i32 0, i32 1
  %fMacros = getelementptr inbounds %"class.icu_75::number::NumberFormatterSettings", ptr %formatter1, i32 0, i32 0
  %locale1 = getelementptr inbounds %"struct.icu_75::number::impl::MacroProps", ptr %fMacros, i32 0, i32 21
  %call = call noundef nonnull align 8 dereferenceable(217) ptr @_ZN6icu_756LocaleaSERKS0_(ptr noundef nonnull align 8 dereferenceable(217) %locale1, ptr noundef nonnull align 8 dereferenceable(217) %locale)
  %2 = load ptr, ptr %macros.addr, align 8
  %locale2 = getelementptr inbounds %"struct.icu_75::number::impl::RangeMacroProps", ptr %2, i32 0, i32 7
  %3 = load ptr, ptr %macros.addr, align 8
  %formatter2 = getelementptr inbounds %"struct.icu_75::number::impl::RangeMacroProps", ptr %3, i32 0, i32 2
  %fMacros3 = getelementptr inbounds %"class.icu_75::number::NumberFormatterSettings", ptr %formatter2, i32 0, i32 0
  %locale4 = getelementptr inbounds %"struct.icu_75::number::impl::MacroProps", ptr %fMacros3, i32 0, i32 21
  %call5 = call noundef nonnull align 8 dereferenceable(217) ptr @_ZN6icu_756LocaleaSERKS0_(ptr noundef nonnull align 8 dereferenceable(217) %locale4, ptr noundef nonnull align 8 dereferenceable(217) %locale2)
  ret void
}

; Function Attrs: mustprogress uwtable
define linkonce_odr noundef nonnull align 8 dereferenceable(1208) ptr @_ZN6icu_756number4impl15RangeMacroPropsaSERKS2_(ptr noundef nonnull align 8 dereferenceable(1208) %this, ptr noundef nonnull align 8 dereferenceable(1208) %0) #1 comdat align 2 {
entry:
  %this.addr = alloca ptr, align 8
  %.addr = alloca ptr, align 8
  store ptr %this, ptr %this.addr, align 8
  store ptr %0, ptr %.addr, align 8
  %this1 = load ptr, ptr %this.addr, align 8
  %formatter1 = getelementptr inbounds %"struct.icu_75::number::impl::RangeMacroProps", ptr %this1, i32 0, i32 1
  %1 = load ptr, ptr %.addr, align 8
  %formatter12 = getelementptr inbounds %"struct.icu_75::number::impl::RangeMacroProps", ptr %1, i32 0, i32 1
  %call = call noundef nonnull align 8 dereferenceable(473) ptr @_ZN6icu_756number26UnlocalizedNumberFormatteraSERKS1_(ptr noundef nonnull align 8 dereferenceable(473) %formatter1, ptr noundef nonnull align 8 dereferenceable(473) %formatter12)
  %formatter2 = getelementptr inbounds %"struct.icu_75::number::impl::RangeMacroProps", ptr %this1, i32 0, i32 2
  %2 = load ptr, ptr %.addr, align 8
  %formatter23 = getelementptr inbounds %"struct.icu_75::number::impl::RangeMacroProps", ptr %2, i32 0, i32 2
  %call4 = call noundef nonnull align 8 dereferenceable(473) ptr @_ZN6icu_756number26UnlocalizedNumberFormatteraSERKS1_(ptr noundef nonnull align 8 dereferenceable(473) %formatter2, ptr noundef nonnull align 8 dereferenceable(473) %formatter23)
  %singleFormatter = getelementptr inbounds %"struct.icu_75::number::impl::RangeMacroProps", ptr %this1, i32 0, i32 3
  %3 = load ptr, ptr %.addr, align 8
  %singleFormatter5 = getelementptr inbounds %"struct.icu_75::number::impl::RangeMacroProps", ptr %3, i32 0, i32 3
  call void @llvm.memcpy.p0.p0.i64(ptr align 8 %singleFormatter, ptr align 8 %singleFormatter5, i64 12, i1 false)
  %locale = getelementptr inbounds %"struct.icu_75::number::impl::RangeMacroProps", ptr %this1, i32 0, i32 7
  %4 = load ptr, ptr %.addr, align 8
  %locale6 = getelementptr inbounds %"struct.icu_75::number::impl::RangeMacroProps", ptr %4, i32 0, i32 7
  %call7 = call noundef nonnull align 8 dereferenceable(217) ptr @_ZN6icu_756LocaleaSERKS0_(ptr noundef nonnull align 8 dereferenceable(217) %locale, ptr noundef nonnull align 8 dereferenceable(217) %locale6)
  ret ptr %this1
}

; Function Attrs: mustprogress uwtable
define linkonce_odr void @_ZN6icu_756number28NumberRangeFormatterSettingsINS0_29LocalizedNumberRangeFormatterEEC2Ev(ptr noundef nonnull align 8 dereferenceable(1208) %this) unnamed_addr #1 comdat align 2 {
entry:
  %this.addr = alloca ptr, align 8
  store ptr %this, ptr %this.addr, align 8
  %this1 = load ptr, ptr %this.addr, align 8
  %fMacros = getelementptr inbounds %"class.icu_75::number::NumberRangeFormatterSettings.3", ptr %this1, i32 0, i32 0
  call void @_ZN6icu_756number4impl15RangeMacroPropsC2Ev(ptr noundef nonnull align 8 dereferenceable(1208) %fMacros)
  ret void
}

; Function Attrs: mustprogress uwtable
define void @_ZN6icu_756number29LocalizedNumberRangeFormatterC2ERKNS0_4impl15RangeMacroPropsERKNS_6LocaleE(ptr noundef nonnull align 8 dereferenceable(1216) %this, ptr noundef nonnull align 8 dereferenceable(1208) %macros, ptr noundef nonnull align 8 dereferenceable(217) %locale) unnamed_addr #1 align 2 personality ptr @__gxx_personality_v0 {
entry:
  %this.addr = alloca ptr, align 8
  %macros.addr = alloca ptr, align 8
  %locale.addr = alloca ptr, align 8
  %exn.slot = alloca ptr, align 8
  %ehselector.slot = alloca i32, align 4
  store ptr %this, ptr %this.addr, align 8
  store ptr %macros, ptr %macros.addr, align 8
  store ptr %locale, ptr %locale.addr, align 8
  %this1 = load ptr, ptr %this.addr, align 8
  call void @_ZN6icu_756number28NumberRangeFormatterSettingsINS0_29LocalizedNumberRangeFormatterEEC2Ev(ptr noundef nonnull align 8 dereferenceable(1208) %this1)
  %fAtomicFormatter = getelementptr inbounds %"class.icu_75::number::LocalizedNumberRangeFormatter", ptr %this1, i32 0, i32 1
  call void @llvm.memset.p0.i64(ptr align 8 %fAtomicFormatter, i8 0, i64 8, i1 false)
  %0 = load ptr, ptr %macros.addr, align 8
  %fMacros = getelementptr inbounds %"class.icu_75::number::NumberRangeFormatterSettings.3", ptr %this1, i32 0, i32 0
  %call = invoke noundef nonnull align 8 dereferenceable(1208) ptr @_ZN6icu_756number4impl15RangeMacroPropsaSERKS2_(ptr noundef nonnull align 8 dereferenceable(1208) %fMacros, ptr noundef nonnull align 8 dereferenceable(1208) %0)
          to label %invoke.cont unwind label %lpad

invoke.cont:                                      ; preds = %entry
  %1 = load ptr, ptr %locale.addr, align 8
  %fMacros2 = getelementptr inbounds %"class.icu_75::number::NumberRangeFormatterSettings.3", ptr %this1, i32 0, i32 0
  %locale3 = getelementptr inbounds %"struct.icu_75::number::impl::RangeMacroProps", ptr %fMacros2, i32 0, i32 7
  %call5 = invoke noundef nonnull align 8 dereferenceable(217) ptr @_ZN6icu_756LocaleaSERKS0_(ptr noundef nonnull align 8 dereferenceable(217) %locale3, ptr noundef nonnull align 8 dereferenceable(217) %1)
          to label %invoke.cont4 unwind label %lpad

invoke.cont4:                                     ; preds = %invoke.cont
  %fMacros6 = getelementptr inbounds %"class.icu_75::number::NumberRangeFormatterSettings.3", ptr %this1, i32 0, i32 0
  invoke void @_ZN6icu_756number4impl17touchRangeLocalesERNS1_15RangeMacroPropsE(ptr noundef nonnull align 8 dereferenceable(1208) %fMacros6)
          to label %invoke.cont7 unwind label %lpad

invoke.cont7:                                     ; preds = %invoke.cont4
  ret void

lpad:                                             ; preds = %invoke.cont4, %invoke.cont, %entry
  %2 = landingpad { ptr, i32 }
          cleanup
  %3 = extractvalue { ptr, i32 } %2, 0
  store ptr %3, ptr %exn.slot, align 8
  %4 = extractvalue { ptr, i32 } %2, 1
  store i32 %4, ptr %ehselector.slot, align 4
  call void @_ZN6icu_756number28NumberRangeFormatterSettingsINS0_29LocalizedNumberRangeFormatterEED2Ev(ptr noundef nonnull align 8 dereferenceable(1208) %this1) #9
  br label %eh.resume

eh.resume:                                        ; preds = %lpad
  %exn = load ptr, ptr %exn.slot, align 8
  %sel = load i32, ptr %ehselector.slot, align 4
  %lpad.val = insertvalue { ptr, i32 } poison, ptr %exn, 0
  %lpad.val8 = insertvalue { ptr, i32 } %lpad.val, i32 %sel, 1
  resume { ptr, i32 } %lpad.val8
}